target datalayout = "e-m:e-p270:32:32-p271:32:32-p272:64:64-i64:64-i128:128-f80:128-n8:16:32:64-S128"
target triple = "x86_64-pc-linux-gnu"

%struct.blake2s_state__ = type { [8 x i32], [2 x i32], [2 x i32], [64 x i8], i64, i64, i8 }

; Function Attrs: nounwind uwtable
define internal void @blake2s_increment_counter(ptr noundef %0, i32 noundef %1) #0 {
  %3 = alloca ptr, align 8
  %4 = alloca i32, align 4
  store ptr %0, ptr %3, align 8, !tbaa !4
  store i32 %1, ptr %4, align 4, !tbaa !15
  %5 = load i32, ptr %4, align 4, !tbaa !15
  %6 = load ptr, ptr %3, align 8, !tbaa !4
  %7 = getelementptr inbounds nuw %struct.blake2s_state__, ptr %6, i32 0, i32 1
  %8 = getelementptr inbounds [2 x i32], ptr %7, i64 0, i64 0
  %9 = load i32, ptr %8, align 8, !tbaa !15
  %10 = add i32 %9, %5
  store i32 %10, ptr %8, align 8, !tbaa !15
  %11 = load ptr, ptr %3, align 8, !tbaa !4
  %12 = getelementptr inbounds nuw %struct.blake2s_state__, ptr %11, i32 0, i32 1
  %13 = getelementptr inbounds [2 x i32], ptr %12, i64 0, i64 0
  %14 = load i32, ptr %13, align 8, !tbaa !15
  %15 = load i32, ptr %4, align 4, !tbaa !15
  %16 = icmp ult i32 %14, %15
  %17 = zext i1 %16 to i32
  %18 = load ptr, ptr %3, align 8, !tbaa !4
  %19 = getelementptr inbounds nuw %struct.blake2s_state__, ptr %18, i32 0, i32 1
  %20 = getelementptr inbounds [2 x i32], ptr %19, i64 0, i64 1
  %21 = load i32, ptr %20, align 4, !tbaa !15
  %22 = add i32 %21, %17
  store i32 %22, ptr %20, align 4, !tbaa !15
  ret void
}

; Function Attrs: nounwind uwtable
define dso_local i32 @blake2s_update(ptr noundef %0, ptr noundef %1, i64 noundef %2) #0 {
  %4 = alloca ptr, align 8
  %5 = alloca ptr, align 8
  %6 = alloca i64, align 8
  %7 = alloca ptr, align 8
  %8 = alloca i64, align 8
  %9 = alloca i64, align 8
  store ptr %0, ptr %4, align 8, !tbaa !4
  store ptr %1, ptr %5, align 8, !tbaa !25
  store i64 %2, ptr %6, align 8, !tbaa !13
  call void @llvm.lifetime.start.p0(i64 8, ptr %7) #6
  %10 = load ptr, ptr %5, align 8, !tbaa !25
  store ptr %10, ptr %7, align 8, !tbaa !11
  %11 = load i64, ptr %6, align 8, !tbaa !13
  %12 = icmp ugt i64 %11, 0
  br i1 %12, label %13, label %70

13:                                               ; preds = %3
  call void @llvm.lifetime.start.p0(i64 8, ptr %8) #6
  %14 = load ptr, ptr %4, align 8, !tbaa !4
  %15 = getelementptr inbounds nuw %struct.blake2s_state__, ptr %14, i32 0, i32 4
  %16 = load i64, ptr %15, align 8, !tbaa !33
  store i64 %16, ptr %8, align 8, !tbaa !13
  call void @llvm.lifetime.start.p0(i64 8, ptr %9) #6
  %17 = load i64, ptr %8, align 8, !tbaa !13
  %18 = sub i64 64, %17
  store i64 %18, ptr %9, align 8, !tbaa !13
  %19 = load i64, ptr %6, align 8, !tbaa !13
  %20 = load i64, ptr %9, align 8, !tbaa !13
  %21 = icmp ugt i64 %19, %20
  br i1 %21, label %22, label %55

22:                                               ; preds = %13
  %23 = load ptr, ptr %4, align 8, !tbaa !4
  %24 = getelementptr inbounds nuw %struct.blake2s_state__, ptr %23, i32 0, i32 4
  store i64 0, ptr %24, align 8, !tbaa !33
  %25 = load ptr, ptr %4, align 8, !tbaa !4
  %26 = getelementptr inbounds nuw %struct.blake2s_state__, ptr %25, i32 0, i32 3
  %27 = getelementptr inbounds [64 x i8], ptr %26, i64 0, i64 0
  %28 = load i64, ptr %8, align 8, !tbaa !13
  %29 = getelementptr inbounds nuw i8, ptr %27, i64 %28
  %30 = load ptr, ptr %7, align 8, !tbaa !11
  %31 = load i64, ptr %9, align 8, !tbaa !13
  call void @llvm.memcpy.p0.p0.i64(ptr align 1 %29, ptr align 1 %30, i64 %31, i1 false)
  %32 = load ptr, ptr %4, align 8, !tbaa !4
  call void @blake2s_increment_counter(ptr noundef %32, i32 noundef 64)
  %33 = load ptr, ptr %4, align 8, !tbaa !4
  %34 = load ptr, ptr %4, align 8, !tbaa !4
  %35 = getelementptr inbounds nuw %struct.blake2s_state__, ptr %34, i32 0, i32 3
  %36 = getelementptr inbounds [64 x i8], ptr %35, i64 0, i64 0
  call void @blake2s_compress(ptr noundef %33, ptr noundef %36)
  %37 = load i64, ptr %9, align 8, !tbaa !13
  %38 = load ptr, ptr %7, align 8, !tbaa !11
  %39 = getelementptr inbounds nuw i8, ptr %38, i64 %37
  store ptr %39, ptr %7, align 8, !tbaa !11
  %40 = load i64, ptr %9, align 8, !tbaa !13
  %41 = load i64, ptr %6, align 8, !tbaa !13
  %42 = sub i64 %41, %40
  store i64 %42, ptr %6, align 8, !tbaa !13
  br label %43

43:                                               ; preds = %46, %22
  %44 = load i64, ptr %6, align 8, !tbaa !13
  %45 = icmp ugt i64 %44, 64
  br i1 %45, label %46, label %54

46:                                               ; preds = %43
  %47 = load ptr, ptr %4, align 8, !tbaa !4
  call void @blake2s_increment_counter(ptr noundef %47, i32 noundef 64)
  %48 = load ptr, ptr %4, align 8, !tbaa !4
  %49 = load ptr, ptr %7, align 8, !tbaa !11
  call void @blake2s_compress(ptr noundef %48, ptr noundef %49)
  %50 = load ptr, ptr %7, align 8, !tbaa !11
  %51 = getelementptr inbounds i8, ptr %50, i64 64
  store ptr %51, ptr %7, align 8, !tbaa !11
  %52 = load i64, ptr %6, align 8, !tbaa !13
  %53 = sub i64 %52, 64
  store i64 %53, ptr %6, align 8, !tbaa !13
  br label %43, !llvm.loop !34

54:                                               ; preds = %43
  br label %55

55:                                               ; preds = %54, %13
  %56 = load ptr, ptr %4, align 8, !tbaa !4
  %57 = getelementptr inbounds nuw %struct.blake2s_state__, ptr %56, i32 0, i32 3
  %58 = getelementptr inbounds [64 x i8], ptr %57, i64 0, i64 0
  %59 = load ptr, ptr %4, align 8, !tbaa !4
  %60 = getelementptr inbounds nuw %struct.blake2s_state__, ptr %59, i32 0, i32 4
  %61 = load i64, ptr %60, align 8, !tbaa !33
  %62 = getelementptr inbounds nuw i8, ptr %58, i64 %61
  %63 = load ptr, ptr %7, align 8, !tbaa !11
  %64 = load i64, ptr %6, align 8, !tbaa !13
  call void @llvm.memcpy.p0.p0.i64(ptr align 1 %62, ptr align 1 %63, i64 %64, i1 false)
  %65 = load i64, ptr %6, align 8, !tbaa !13
  %66 = load ptr, ptr %4, align 8, !tbaa !4
  %67 = getelementptr inbounds nuw %struct.blake2s_state__, ptr %66, i32 0, i32 4
  %68 = load i64, ptr %67, align 8, !tbaa !33
  %69 = add i64 %68, %65
  store i64 %69, ptr %67, align 8, !tbaa !33
  call void @llvm.lifetime.end.p0(i64 8, ptr %9) #6
  call void @llvm.lifetime.end.p0(i64 8, ptr %8) #6
  br label %70

70:                                               ; preds = %55, %3
  call void @llvm.lifetime.end.p0(i64 8, ptr %7) #6
  ret i32 0
}