; Function Attrs: nofree norecurse nosync nounwind memory(argmem: readwrite) uwtable
define dso_local noundef i32 @blake2s_update(ptr noundef captures(none) %0, ptr noundef readonly captures(none) %1, i64 noundef %2) local_unnamed_addr #0 {
  %.not = icmp eq i64 %2, 0
  br i1 %.not, label %37, label %4

4:                                                ; preds = %3
  %5 = getelementptr inbounds nuw i8, ptr %0, i64 112
  %6 = load i64, ptr %5, align 8, !tbaa !19
  %7 = sub i64 64, %6
  %8 = icmp ugt i64 %2, %7
  br i1 %8, label %9, label %.loopexit

9:                                                ; preds = %4
  store i64 0, ptr %5, align 8, !tbaa !19
  %10 = getelementptr inbounds nuw i8, ptr %0, i64 48
  %11 = getelementptr inbounds nuw i8, ptr %10, i64 %6
  tail call void @llvm.memcpy.p0.p0.i64(ptr nonnull align 1 %11, ptr align 1 %1, i64 %7, i1 false)
  %12 = getelementptr inbounds nuw i8, ptr %0, i64 32
  %13 = load i32, ptr %12, align 8, !tbaa !4
  %14 = add i32 %13, 64
  store i32 %14, ptr %12, align 8, !tbaa !4
  %15 = icmp ugt i32 %13, -65
  %16 = zext i1 %15 to i32
  %17 = getelementptr inbounds nuw i8, ptr %0, i64 36
  %18 = load i32, ptr %17, align 4, !tbaa !4
  %19 = add i32 %18, %16
  store i32 %19, ptr %17, align 4, !tbaa !4
  tail call fastcc void @blake2s_compress(ptr noundef nonnull %0, ptr noundef nonnull %10)
  %20 = getelementptr inbounds nuw i8, ptr %1, i64 %7
  %21 = sub nuw i64 %2, %7
  %22 = icmp ugt i64 %21, 64
  br i1 %22, label %.lr.ph, label %.loopexit

.lr.ph:                                           ; preds = %9, %.lr.ph
  %.134 = phi i64 [ %30, %.lr.ph ], [ %21, %9 ]
  %.13033 = phi ptr [ %29, %.lr.ph ], [ %20, %9 ]
  %23 = load i32, ptr %12, align 8, !tbaa !4
  %24 = add i32 %23, 64
  store i32 %24, ptr %12, align 8, !tbaa !4
  %25 = icmp ugt i32 %23, -65
  %26 = zext i1 %25 to i32
  %27 = load i32, ptr %17, align 4, !tbaa !4
  %28 = add i32 %27, %26
  store i32 %28, ptr %17, align 4, !tbaa !4
  tail call fastcc void @blake2s_compress(ptr noundef nonnull %0, ptr noundef %.13033)
  %29 = getelementptr inbounds nuw i8, ptr %.13033, i64 64
  %30 = add i64 %.134, -64
  %31 = icmp ugt i64 %30, 64
  br i1 %31, label %.lr.ph, label %.loopexit, !llvm.loop !22

.loopexit:                                        ; preds = %.lr.ph, %9, %4
  %.029 = phi ptr [ %1, %4 ], [ %20, %9 ], [ %29, %.lr.ph ]
  %.0 = phi i64 [ %2, %4 ], [ %21, %9 ], [ %30, %.lr.ph ]
  %32 = getelementptr inbounds nuw i8, ptr %0, i64 48
  %33 = load i64, ptr %5, align 8, !tbaa !19
  %34 = getelementptr inbounds nuw i8, ptr %32, i64 %33
  tail call void @llvm.memcpy.p0.p0.i64(ptr nonnull align 1 %34, ptr align 1 %.029, i64 %.0, i1 false)
  %35 = load i64, ptr %5, align 8, !tbaa !19
  %36 = add i64 %35, %.0
  store i64 %36, ptr %5, align 8, !tbaa !19
  br label %37

37:                                               ; preds = %.loopexit, %3
  ret i32 0
}